; Function Attrs: nounwind uwtable
define dso_local range(i32 -1, 1) i32 @PyErr_WarnEx(ptr noundef %0, ptr noundef %1, i64 noundef %2) local_unnamed_addr #0 {
  %4 = tail call ptr @PyUnicode_FromString(ptr noundef %1) #7
  %5 = icmp eq ptr %4, null
  br i1 %5, label %Py_DECREF.exit, label %6

6:                                                ; preds = %3
  %7 = icmp eq ptr %0, null
  %8 = load ptr, ptr @PyExc_RuntimeWarning, align 8
  %spec.select.i = select i1 %7, ptr %8, ptr %0
  %9 = tail call fastcc ptr @do_warn(ptr noundef nonnull %4, ptr noundef %spec.select.i, i64 noundef %2, ptr noundef null, ptr noundef null)
  %10 = icmp eq ptr %9, null
  br i1 %10, label %warn_unicode.exit, label %11

11:                                               ; preds = %6
  %12 = load i32, ptr %9, align 8, !tbaa !15
  %.not.i.i = icmp sgt i32 %12, -1
  br i1 %.not.i.i, label %13, label %warn_unicode.exit

13:                                               ; preds = %11
  %14 = add nsw i32 %12, -1
  store i32 %14, ptr %9, align 8, !tbaa !15
  %15 = icmp eq i32 %14, 0
  br i1 %15, label %16, label %warn_unicode.exit

16:                                               ; preds = %13
  tail call void @_Py_Dealloc(ptr noundef nonnull %9) #7
  br label %warn_unicode.exit

warn_unicode.exit:                                ; preds = %6, %11, %13, %16
  %.0.i = phi i32 [ -1, %6 ], [ 0, %11 ], [ 0, %13 ], [ 0, %16 ]
  %17 = load i32, ptr %4, align 8, !tbaa !15
  %.not.i = icmp sgt i32 %17, -1
  br i1 %.not.i, label %18, label %Py_DECREF.exit

18:                                               ; preds = %warn_unicode.exit
  %19 = add nsw i32 %17, -1
  store i32 %19, ptr %4, align 8, !tbaa !15
  %20 = icmp eq i32 %19, 0
  br i1 %20, label %21, label %Py_DECREF.exit

21:                                               ; preds = %18
  tail call void @_Py_Dealloc(ptr noundef nonnull %4) #7
  br label %Py_DECREF.exit

Py_DECREF.exit:                                   ; preds = %21, %18, %warn_unicode.exit, %3
  %.0 = phi i32 [ -1, %3 ], [ %.0.i, %warn_unicode.exit ], [ %.0.i, %18 ], [ %.0.i, %21 ]
  ret i32 %.0
}